
Memory Configuration

Name             Origin             Length             Attributes
*default*        0x0000000000000000 0xffffffffffffffff

Linker script and memory map

                0x0000000080688300                . = 0x80688300

.text           0x0000000080688300     0x23e8
 *(.text)
 .text          0x0000000080688300     0x23e8 pikmin.c.o
                0x0000000080688300                onDraw2D
                0x0000000080688324                setupRamStream
                0x0000000080688368                PressLeft
                0x0000000080688384                PressRight
                0x00000000806883a0                PressUp
                0x00000000806883bc                PressDown
                0x00000000806883d8                PressAnalog
                0x000000008068844c                strlen
                0x0000000080688480                strdup
                0x00000000806884e0                create2D
                0x0000000080688c6c                P2JME__Mgr__setupFont
                0x0000000080688c90                JUTFont__print
                0x0000000080688e54                OnOnyonBirth
                0x0000000080689264                EntersetSeed
                0x00000000806895a8                initUnitlist
                0x0000000080689648                writeAt
                0x0000000080689650                drawcharactermenu
                0x0000000080689798                drawp1select
                0x0000000080689b1c                drawp2select
                0x0000000080689ed8                drawp3select
                0x000000008068a24c                drawp4select
                0x000000008068a5c4                CharacterSelect

.glink          0x000000008068a6e8        0x0
 .glink         0x000000008068a6e8        0x0 pikmin.c.o

.rodata         0x000000008068a6e8      0x900
 *(.rodata*)
 .rodata.str1.4
                0x000000008068a6e8      0x87e pikmin.c.o
                                        0x886 (size before relaxing)
 *fill*         0x000000008068af66        0x2 
 .rodata.cst4   0x000000008068af68       0x70 pikmin.c.o
 .rodata.cst8   0x000000008068afd8       0x10 pikmin.c.o

.eh_frame       0x000000008068afe8      0x3f8
 .eh_frame      0x000000008068afe8      0x3f8 pikmin.c.o

.eh_frame       0x000000008068b3e0        0x0
 .eh_frame      0x000000008068b3e0        0x0 pikmin.c.o

.sdata2         0x000000008068b3e0        0x0
 .sdata2        0x000000008068b3e0        0x0 pikmin.c.o

.rela.dyn       0x000000008068b3e0        0x0
 .rela.iplt     0x000000008068b3e0        0x0 pikmin.c.o

.data           0x000000008068b3e0      0x210
 *(.data)
 .data          0x000000008068b3e0      0x210 pikmin.c.o
                0x000000008068b3e0                naviname
                0x000000008068b4d0                cndname
                0x000000008068b550                cndfile
                0x000000008068b5c0                description

.branch_lt      0x000000008068b5f0        0x0
 .branch_lt     0x000000008068b5f0        0x0 pikmin.c.o
                0x000000008068b5f8                . = (. + 0x8)

.sdata          0x000000008068b5f8       0x38
 *(.sdata)
 .sdata         0x000000008068b5f8       0x38 pikmin.c.o
                0x000000008068b5f8                p4sel
                0x000000008068b5f9                p3sel
                0x000000008068b5fa                p2sel
                0x000000008068b5fb                characters_per_row
                0x000000008068b5fc                characters
                0x000000008068b5fd                max_option
                0x000000008068b600                color8
                0x000000008068b604                color7
                0x000000008068b608                color6
                0x000000008068b60c                color5
                0x000000008068b610                color3
                0x000000008068b614                color2
                0x000000008068b618                treasureName
                0x000000008068b61c                factor
                0x000000008068b620                released4
                0x000000008068b624                released3
                0x000000008068b628                released2
                0x000000008068b62c                released
                0x00000000806935f8                _SDA_BASE_
 .sdata         0x000000008068b630        0x0 pikmin.c.o
                0x00000000801cdf14                Game__Creature__setPosition = 0x801cdf14
                0x00000000801cdd30                Game__Creature__init = 0x801cdd30
                0x0000000080270ba8                hasBootContainer = 0x80270ba8
                0x000000008020af78                OnyonMgr__birth = 0x8020af78
                0x00000000802c7994                Game__Cave__UnitInfo__getUnitKind = 0x802c7994
                0x00000000802c79c0                Game__Cave__UnitInfo__getBaseGen = 0x802c79c0
                0x00000000804984f8                p2cos = 0x804984f8
                0x0000000080498490                p2sin = 0x80498490
                0x000000008049bc98                ct_RamStream = 0x8049bc98
                0x00000000804db4d4                ct_Controller = 0x804db4d4
                0x000000008000519c                memcpy = 0x8000519c
                0x00000000800889f8                __nwa = 0x800889f8
                0x00000000800a0978                J2DPrint____ct_FFF_TTTT = 0x800a0978
                0x0000000080083a34                JKRDvdRipper__loadToMainRAM = 0x80083a34
                0x000000008008ebc0                JUTException__panic_f = 0x8008ebc0
                0x00000000800b9e34                J2DPictureEx____ct = 0x800b9e34
                0x0000000080109cf4                sprintf = 0x80109cf4
                0x000000008010b358                strcpy = 0x8010b358
                0x000000008049bc98                rammstein = 0x8049bc98
                0x000000008049ac14                getNextTok = 0x8049ac14
                0x000000008049b624                readString_Stream = 0x8049b624
                0x0000000080338664                PSSystem__SysIF__playSystemSe = 0x80338664
                0x0000000080009d24                OSReport = 0x80009d24
                0x0000000080109dc4                rand = 0x80109dc4
                0x00000000804f0ccc                PSStart2DStream = 0x804f0ccc
                0x0000000080094f1c                JUTResFont__getWidthEntry = 0x80094f1c
                0x00000000800947e4                JUTResFont__setGX = 0x800947e4
                0x0000000080094a54                JUTResFont__drawChar_scale = 0x80094a54
                0x00000000800be728                J2DPictureEx__draw = 0x800be728
                0x00000000801e2c68                Game__BaseGameSection__draw2D = 0x801e2c68
LOAD pikmin.c.o
OUTPUT(project.o elf32-powerpc)

.bss            0x000000008068b630      0x79c
 .bss           0x000000008068b630      0x79c pikmin.c.o
                0x000000008068b630                navitex
                0x000000008068b720                naviicon
                0x000000008068b810                navitexDispname
                0x000000008068b900                treasures
                0x000000008068bbf0                explorerTreasures
                0x000000008068bc24                DispTime
                0x000000008068bc44                DispPlayer
                0x000000008068bc84                DispSong
                0x000000008068bcc4                DispSeed
                0x000000008068bd04                DispTreasure
                0x000000008068bd44                DispEnemy
                0x000000008068bd84                pikiicon

.sbss           0x000000008068bdcc       0x90
 .sbss          0x000000008068bdcc       0x90 pikmin.c.o
                0x000000008068bdcc                p4pikis
                0x000000008068bdd0                p3pikis
                0x000000008068bdd4                font
                0x000000008068bdd8                j2dprint_red
                0x000000008068bddc                j2dprint_yellow
                0x000000008068bde0                j2dprint_green
                0x000000008068bde4                j2dprint
                0x000000008068bde8                test
                0x000000008068bdec                birthedTekiCount
                0x000000008068bdf0                treasureCount
                0x000000008068bdf4                pad4
                0x000000008068bdf8                pad3
                0x000000008068bdfc                pad2
                0x000000008068be00                pad1
                0x000000008068be04                isUnderground
                0x000000008068be05                secretmode
                0x000000008068be06                first
                0x000000008068be07                paused
                0x000000008068be08                p1sel
                0x000000008068be09                moved
                0x000000008068be0a                cndindex
                0x000000008068be0b                enteringseed
                0x000000008068be0c                option
                0x000000008068be0d                bigmode
                0x000000008068be0e                doublepikmin
                0x000000008068be0f                twofiftyone
                0x000000008068be10                seedset
                0x000000008068be11                drawtotals
                0x000000008068be12                speedup
                0x000000008068be13                randomize
                0x000000008068be14                randomstart
                0x000000008068be15                onyonid
                0x000000008068be16                player
                0x000000008068be17                onionmode
                0x000000008068be18                orimaicon
                0x000000008068be1c                orimatex
                0x000000008068be20                BeaconID
                0x000000008068be24                patend
                0x000000008068be28                j2dpic
                0x000000008068be2c                seed
                0x000000008068be30                nodemo
                0x000000008068be31                giveup
                0x000000008068be34                entries
                0x000000008068be38                newfont
                0x000000008068be3c                inselect
                0x000000008068be3d                movieDie
                0x000000008068be40                total_enemies
                0x000000008068be44                total_treasures
                0x000000008068be48                alive
                0x000000008068be4c                dead
                0x000000008068be50                widescreen
                0x000000008068be51                inresult
                0x000000008068be52                play
                0x000000008068be54                drawpiki
                0x000000008068be58                time

.iplt           0x000000008068be60        0x0
 .iplt          0x000000008068be60        0x0 pikmin.c.o

.comment        0x0000000000000000       0x23
 .comment       0x0000000000000000       0x23 pikmin.c.o
                                         0x24 (size before relaxing)

.gnu.attributes
                0x0000000000000000       0x10
 .gnu.attributes
                0x0000000000000000       0x10 pikmin.c.o
